target datalayout = "e-m:e-p270:32:32-p271:32:32-p272:64:64-i64:64-i128:128-f80:128-n8:16:32:64-S128"
target triple = "x86_64-pc-linux-gnu"

%struct.mbedtls_asn1_buf = type { i32, i64, ptr }

@.str = private unnamed_addr constant [121 x i8] c"generated/home/dtcxzyw/WorkSpace/Projects/compilers/llvm-opt-benchmark/bench/lief/bench_build/mbed_src/library/pkparse.c\00", align 1

; Function Attrs: nounwind uwtable
define internal i32 @pk_ecc_tag_is_specified_ec_domain(i32 noundef %0) #0 {
  %2 = alloca i32, align 4
  store i32 %0, ptr %2, align 4, !tbaa !13
  %3 = load i32, ptr %2, align 4, !tbaa !13
  %4 = icmp eq i32 %3, 48
  %5 = zext i1 %4 to i32
  ret i32 %5
}

; Function Attrs: inlinehint nounwind uwtable
define internal i32 @mbedtls_error_add(i32 noundef %0, i32 noundef %1, ptr noundef %2, i32 noundef %3) #3 {
  %5 = alloca i32, align 4
  %6 = alloca i32, align 4
  %7 = alloca ptr, align 8
  %8 = alloca i32, align 4
  store i32 %0, ptr %5, align 4, !tbaa !13
  store i32 %1, ptr %6, align 4, !tbaa !13
  store ptr %2, ptr %7, align 8, !tbaa !9
  store i32 %3, ptr %8, align 4, !tbaa !13
  %9 = load i32, ptr %5, align 4, !tbaa !13
  %10 = load i32, ptr %6, align 4, !tbaa !13
  %11 = add nsw i32 %9, %10
  ret i32 %11
}

; Function Attrs: nounwind uwtable
define internal i32 @pk_get_ecparams(ptr noundef %0, ptr noundef %1, ptr noundef %2) #0 {
  %4 = alloca i32, align 4
  %5 = alloca ptr, align 8
  %6 = alloca ptr, align 8
  %7 = alloca ptr, align 8
  %8 = alloca i32, align 4
  %9 = alloca i32, align 4
  store ptr %0, ptr %5, align 8, !tbaa !3
  store ptr %1, ptr %6, align 8, !tbaa !9
  store ptr %2, ptr %7, align 8, !tbaa !20
  call void @llvm.lifetime.start.p0(i64 4, ptr %8) #9
  store i32 -110, ptr %8, align 4, !tbaa !13
  %10 = load ptr, ptr %6, align 8, !tbaa !9
  %11 = load ptr, ptr %5, align 8, !tbaa !3
  %12 = load ptr, ptr %11, align 8, !tbaa !9
  %13 = ptrtoint ptr %10 to i64
  %14 = ptrtoint ptr %12 to i64
  %15 = sub i64 %13, %14
  %16 = icmp slt i64 %15, 1
  br i1 %16, label %17, label %19

17:                                               ; preds = %3
  %18 = call i32 @mbedtls_error_add(i32 noundef -15616, i32 noundef -96, ptr noundef @.str, i32 noundef 355)
  store i32 %18, ptr %4, align 4
  store i32 1, ptr %9, align 4
  br label %69

19:                                               ; preds = %3
  %20 = load ptr, ptr %5, align 8, !tbaa !3
  %21 = load ptr, ptr %20, align 8, !tbaa !9
  %22 = load i8, ptr %21, align 1, !tbaa !27
  %23 = zext i8 %22 to i32
  %24 = load ptr, ptr %7, align 8, !tbaa !20
  %25 = getelementptr inbounds nuw %struct.mbedtls_asn1_buf, ptr %24, i32 0, i32 0
  store i32 %23, ptr %25, align 8, !tbaa !22
  %26 = load ptr, ptr %7, align 8, !tbaa !20
  %27 = getelementptr inbounds nuw %struct.mbedtls_asn1_buf, ptr %26, i32 0, i32 0
  %28 = load i32, ptr %27, align 8, !tbaa !22
  %29 = icmp ne i32 %28, 6
  br i1 %29, label %30, label %38

30:                                               ; preds = %19
  %31 = load ptr, ptr %7, align 8, !tbaa !20
  %32 = getelementptr inbounds nuw %struct.mbedtls_asn1_buf, ptr %31, i32 0, i32 0
  %33 = load i32, ptr %32, align 8, !tbaa !22
  %34 = call i32 @pk_ecc_tag_is_specified_ec_domain(i32 noundef %33)
  %35 = icmp ne i32 %34, 0
  br i1 %35, label %38, label %36

36:                                               ; preds = %30
  %37 = call i32 @mbedtls_error_add(i32 noundef -15616, i32 noundef -98, ptr noundef @.str, i32 noundef 363)
  store i32 %37, ptr %4, align 4
  store i32 1, ptr %9, align 4
  br label %69

38:                                               ; preds = %30, %19
  %39 = load ptr, ptr %5, align 8, !tbaa !3
  %40 = load ptr, ptr %6, align 8, !tbaa !9
  %41 = load ptr, ptr %7, align 8, !tbaa !20
  %42 = getelementptr inbounds nuw %struct.mbedtls_asn1_buf, ptr %41, i32 0, i32 1
  %43 = load ptr, ptr %7, align 8, !tbaa !20
  %44 = getelementptr inbounds nuw %struct.mbedtls_asn1_buf, ptr %43, i32 0, i32 0
  %45 = load i32, ptr %44, align 8, !tbaa !22
  %46 = call i32 @mbedtls_asn1_get_tag(ptr noundef %39, ptr noundef %40, ptr noundef %42, i32 noundef %45)
  store i32 %46, ptr %8, align 4, !tbaa !13
  %47 = icmp ne i32 %46, 0
  br i1 %47, label %48, label %51

48:                                               ; preds = %38
  %49 = load i32, ptr %8, align 4, !tbaa !13
  %50 = call i32 @mbedtls_error_add(i32 noundef -15616, i32 noundef %49, ptr noundef @.str, i32 noundef 367)
  store i32 %50, ptr %4, align 4
  store i32 1, ptr %9, align 4
  br label %69

51:                                               ; preds = %38
  %52 = load ptr, ptr %5, align 8, !tbaa !3
  %53 = load ptr, ptr %52, align 8, !tbaa !9
  %54 = load ptr, ptr %7, align 8, !tbaa !20
  %55 = getelementptr inbounds nuw %struct.mbedtls_asn1_buf, ptr %54, i32 0, i32 2
  store ptr %53, ptr %55, align 8, !tbaa !31
  %56 = load ptr, ptr %7, align 8, !tbaa !20
  %57 = getelementptr inbounds nuw %struct.mbedtls_asn1_buf, ptr %56, i32 0, i32 1
  %58 = load i64, ptr %57, align 8, !tbaa !24
  %59 = load ptr, ptr %5, align 8, !tbaa !3
  %60 = load ptr, ptr %59, align 8, !tbaa !9
  %61 = getelementptr inbounds nuw i8, ptr %60, i64 %58
  store ptr %61, ptr %59, align 8, !tbaa !9
  %62 = load ptr, ptr %5, align 8, !tbaa !3
  %63 = load ptr, ptr %62, align 8, !tbaa !9
  %64 = load ptr, ptr %6, align 8, !tbaa !9
  %65 = icmp ne ptr %63, %64
  br i1 %65, label %66, label %68

66:                                               ; preds = %51
  %67 = call i32 @mbedtls_error_add(i32 noundef -15616, i32 noundef -102, ptr noundef @.str, i32 noundef 375)
  store i32 %67, ptr %4, align 4
  store i32 1, ptr %9, align 4
  br label %69

68:                                               ; preds = %51
  store i32 0, ptr %4, align 4
  store i32 1, ptr %9, align 4
  br label %69

69:                                               ; preds = %68, %66, %48, %36, %17
  call void @llvm.lifetime.end.p0(i64 4, ptr %8) #9
  %70 = load i32, ptr %4, align 4
  ret i32 %70
}