; Function Attrs: nounwind uwtable
define internal fastcc range(i32 -2147483648, 2147468032) i32 @pk_get_ecparams(ptr noundef nonnull %0, ptr noundef %1, ptr noundef nonnull %2) unnamed_addr #0 {
  %4 = load ptr, ptr %0, align 8, !tbaa !7
  %5 = ptrtoint ptr %1 to i64
  %6 = ptrtoint ptr %4 to i64
  %7 = sub i64 %5, %6
  %8 = icmp slt i64 %7, 1
  br i1 %8, label %22, label %9

9:                                                ; preds = %3
  %10 = load i8, ptr %4, align 1, !tbaa !23
  %11 = zext i8 %10 to i32
  store i32 %11, ptr %2, align 8, !tbaa !12
  switch i8 %10, label %22 [
    i8 6, label %12
    i8 48, label %12
  ]

12:                                               ; preds = %9, %9
  %13 = getelementptr inbounds nuw i8, ptr %2, i64 8
  %14 = tail call i32 @mbedtls_asn1_get_tag(ptr noundef nonnull %0, ptr noundef %1, ptr noundef nonnull %13, i32 noundef %11) #9
  %.not20 = icmp eq i32 %14, 0
  br i1 %.not20, label %17, label %15

15:                                               ; preds = %12
  %16 = add nsw i32 %14, -15616
  br label %22

17:                                               ; preds = %12
  %18 = load ptr, ptr %0, align 8, !tbaa !7
  %19 = getelementptr inbounds nuw i8, ptr %2, i64 16
  store ptr %18, ptr %19, align 8, !tbaa !15
  %20 = load i64, ptr %13, align 8, !tbaa !14
  %21 = getelementptr inbounds nuw i8, ptr %18, i64 %20
  store ptr %21, ptr %0, align 8, !tbaa !7
  %.not21 = icmp eq ptr %21, %1
  %spec.select = select i1 %.not21, i32 0, i32 -15718
  br label %22

22:                                               ; preds = %9, %17, %3, %15
  %.0 = phi i32 [ %16, %15 ], [ -15712, %3 ], [ %spec.select, %17 ], [ -15714, %9 ]
  ret i32 %.0
}